c__builtin__
set
p0
((lp1
(S'diamond'
p2
S'green'
p3
S'empty'
p4
I2
tp5
a(S'squiggle'
p6
g3
S'striped'
p7
I1
tp8
a(S'oval'
p9
S'purple'
p10
g7
I3
tp11
a(g6
g10
S'solid'
p12
I2
tp13
a(g9
S'red'
p14
g4
I1
tp15
a(g2
g14
g12
I3
tp16
a(g2
g10
g7
I1
tp17
a(g6
g10
g4
I3
tp18
a(g9
g3
g12
I2
tp19
atp20
Rp21
.