c__builtin__
set
p0
((lp1
(S'diamond'
p2
S'red'
p3
S'solid'
p4
I1
tp5
a(S'oval'
p6
S'green'
p7
g4
I1
tp8
aNa(S'squiggle'
p9
g7
S'empty'
p10
I1
tp11
a(g2
g3
g10
I1
tp12
a(g9
g7
S'striped'
p13
I1
tp14
a(g2
S'purple'
p15
g13
I1
tp16
a(g6
g15
g13
I1
tp17
a(g9
g7
g4
I1
tp18
atp19
Rp20
.