c__builtin__
set
p0
((lp1
(S'diamond'
p2
S'red'
p3
S'solid'
p4
I1
tp5
a(S'oval'
p6
S'green'
p7
g4
I1
tp8
a(S'squiggle'
p9
g7
S'empty'
p10
I1
tp11
a(g2
g3
g10
I1
tp12
a(g6
g3
g10
I1
tp13
a(g9
g7
S'striped'
p14
I1
tp15
a(g2
S'purple'
p16
g14
I1
tp17
a(g6
g16
g14
I1
tp18
a(g9
g7
g4
I1
tp19
atp20
Rp21
.